; Function Attrs: nofree norecurse nosync nounwind memory(read, argmem: readwrite, inaccessiblemem: none) uwtable
define void @right_mult_with_vector_d(ptr noundef readonly captures(none) %0, i32 noundef %1, i32 noundef %2, ptr noundef readonly captures(none) %3, ptr noundef writeonly captures(none) %4) local_unnamed_addr #5 {
  %6 = icmp sgt i32 %1, 0
  br i1 %6, label %.preheader.lr.ph, label %._crit_edge19

.preheader.lr.ph:                                 ; preds = %5
  %7 = icmp sgt i32 %2, 0
  %wide.trip.count26 = zext nneg i32 %1 to i64
  br i1 %7, label %.preheader.us.preheader, label %.preheader.preheader

.preheader.preheader:                             ; preds = %.preheader.lr.ph
  %8 = shl nuw nsw i64 %wide.trip.count26, 3
  tail call void @llvm.memset.p0.i64(ptr align 8 %4, i8 0, i64 %8, i1 false), !tbaa !10
  br label %._crit_edge19

.preheader.us.preheader:                          ; preds = %.preheader.lr.ph
  %wide.trip.count = zext nneg i32 %2 to i64
  br label %.preheader.us

.preheader.us:                                    ; preds = %.preheader.us.preheader, %._crit_edge.us
  %indvars.iv23 = phi i64 [ 0, %.preheader.us.preheader ], [ %indvars.iv.next24, %._crit_edge.us ]
  %9 = getelementptr inbounds nuw ptr, ptr %0, i64 %indvars.iv23
  %10 = load ptr, ptr %9, align 8, !tbaa !8
  br label %11

11:                                               ; preds = %.preheader.us, %11
  %indvars.iv = phi i64 [ 0, %.preheader.us ], [ %indvars.iv.next, %11 ]
  %.017.us = phi double [ 0.000000e+00, %.preheader.us ], [ %16, %11 ]
  %12 = getelementptr inbounds nuw double, ptr %10, i64 %indvars.iv
  %13 = load double, ptr %12, align 8, !tbaa !10
  %14 = getelementptr inbounds nuw double, ptr %3, i64 %indvars.iv
  %15 = load double, ptr %14, align 8, !tbaa !10
  %16 = tail call double @llvm.fmuladd.f64(double %13, double %15, double %.017.us)
  %indvars.iv.next = add nuw nsw i64 %indvars.iv, 1
  %exitcond.not = icmp eq i64 %indvars.iv.next, %wide.trip.count
  br i1 %exitcond.not, label %._crit_edge.us, label %11, !llvm.loop !20

._crit_edge.us:                                   ; preds = %11
  %17 = getelementptr inbounds nuw double, ptr %4, i64 %indvars.iv23
  store double %16, ptr %17, align 8, !tbaa !10
  %indvars.iv.next24 = add nuw nsw i64 %indvars.iv23, 1
  %exitcond27.not = icmp eq i64 %indvars.iv.next24, %wide.trip.count26
  br i1 %exitcond27.not, label %._crit_edge19, label %.preheader.us, !llvm.loop !21

._crit_edge19:                                    ; preds = %._crit_edge.us, %.preheader.preheader, %5
  ret void
}